target datalayout = "e-m:e-p270:32:32-p271:32:32-p272:64:64-i64:64-i128:128-f80:128-n8:16:32:64-S128"
target triple = "x86_64-pc-linux-gnu"

%struct.SurfaceDataRasInfo = type { %struct.SurfaceDataBounds, ptr, i32, i32, i32, i32, ptr, ptr, ptr, ptr, ptr, ptr, i32, %union.anon.0 }
%struct.SurfaceDataBounds = type { i32, i32, i32, i32 }
%union.anon.0 = type { ptr, [56 x i8] }

; Function Attrs: nounwind uwtable
define hidden void @Any3ByteSetLine(ptr noundef %0, i32 noundef %1, i32 noundef %2, i32 noundef %3, i32 noundef %4, i32 noundef %5, i32 noundef %6, i32 noundef %7, i32 noundef %8, i32 noundef %9, ptr noundef %10, ptr noundef %11) #0 {
  %13 = alloca ptr, align 8
  %14 = alloca i32, align 4
  %15 = alloca i32, align 4
  %16 = alloca i32, align 4
  %17 = alloca i32, align 4
  %18 = alloca i32, align 4
  %19 = alloca i32, align 4
  %20 = alloca i32, align 4
  %21 = alloca i32, align 4
  %22 = alloca i32, align 4
  %23 = alloca ptr, align 8
  %24 = alloca ptr, align 8
  %25 = alloca i8, align 1
  %26 = alloca i8, align 1
  %27 = alloca i8, align 1
  %28 = alloca i32, align 4
  %29 = alloca ptr, align 8
  %30 = alloca i32, align 4
  %31 = alloca i32, align 4
  store ptr %0, ptr %13, align 8
  store i32 %1, ptr %14, align 4
  store i32 %2, ptr %15, align 4
  store i32 %3, ptr %16, align 4
  store i32 %4, ptr %17, align 4
  store i32 %5, ptr %18, align 4
  store i32 %6, ptr %19, align 4
  store i32 %7, ptr %20, align 4
  store i32 %8, ptr %21, align 4
  store i32 %9, ptr %22, align 4
  store ptr %10, ptr %23, align 8
  store ptr %11, ptr %24, align 8
  %32 = load ptr, ptr %13, align 8
  %33 = getelementptr inbounds %struct.SurfaceDataRasInfo, ptr %32, i32 0, i32 4
  %34 = load i32, ptr %33, align 8
  store i32 %34, ptr %28, align 4
  %35 = load ptr, ptr %13, align 8
  %36 = getelementptr inbounds %struct.SurfaceDataRasInfo, ptr %35, i32 0, i32 1
  %37 = load ptr, ptr %36, align 8
  %38 = ptrtoint ptr %37 to i64
  %39 = load i32, ptr %15, align 4
  %40 = sext i32 %39 to i64
  %41 = load i32, ptr %28, align 4
  %42 = sext i32 %41 to i64
  %43 = mul nsw i64 %40, %42
  %44 = load i32, ptr %14, align 4
  %45 = sext i32 %44 to i64
  %46 = mul nsw i64 %45, 3
  %47 = add nsw i64 %43, %46
  %48 = add nsw i64 %38, %47
  %49 = inttoptr i64 %48 to ptr
  store ptr %49, ptr %29, align 8
  %50 = load i32, ptr %19, align 4
  %51 = and i32 %50, 1
  %52 = icmp ne i32 %51, 0
  br i1 %52, label %53, label %54

53:                                               ; preds = %12
  br label %72

54:                                               ; preds = %12
  %55 = load i32, ptr %19, align 4
  %56 = and i32 %55, 2
  %57 = icmp ne i32 %56, 0
  br i1 %57, label %58, label %59

58:                                               ; preds = %54
  br label %70

59:                                               ; preds = %54
  %60 = load i32, ptr %19, align 4
  %61 = and i32 %60, 4
  %62 = icmp ne i32 %61, 0
  br i1 %62, label %63, label %65

63:                                               ; preds = %59
  %64 = load i32, ptr %28, align 4
  br label %68

65:                                               ; preds = %59
  %66 = load i32, ptr %28, align 4
  %67 = sub nsw i32 0, %66
  br label %68

68:                                               ; preds = %65, %63
  %69 = phi i32 [ %64, %63 ], [ %67, %65 ]
  br label %70

70:                                               ; preds = %68, %58
  %71 = phi i32 [ -3, %58 ], [ %69, %68 ]
  br label %72

72:                                               ; preds = %70, %53
  %73 = phi i32 [ 3, %53 ], [ %71, %70 ]
  store i32 %73, ptr %30, align 4
  %74 = load i32, ptr %21, align 4
  %75 = and i32 %74, 1
  %76 = icmp ne i32 %75, 0
  br i1 %76, label %77, label %78

77:                                               ; preds = %72
  br label %103

78:                                               ; preds = %72
  %79 = load i32, ptr %21, align 4
  %80 = and i32 %79, 2
  %81 = icmp ne i32 %80, 0
  br i1 %81, label %82, label %83

82:                                               ; preds = %78
  br label %101

83:                                               ; preds = %78
  %84 = load i32, ptr %21, align 4
  %85 = and i32 %84, 4
  %86 = icmp ne i32 %85, 0
  br i1 %86, label %87, label %89

87:                                               ; preds = %83
  %88 = load i32, ptr %28, align 4
  br label %99

89:                                               ; preds = %83
  %90 = load i32, ptr %21, align 4
  %91 = and i32 %90, 8
  %92 = icmp ne i32 %91, 0
  br i1 %92, label %93, label %96

93:                                               ; preds = %89
  %94 = load i32, ptr %28, align 4
  %95 = sub nsw i32 0, %94
  br label %97

96:                                               ; preds = %89
  br label %97

97:                                               ; preds = %96, %93
  %98 = phi i32 [ %95, %93 ], [ 0, %96 ]
  br label %99

99:                                               ; preds = %97, %87
  %100 = phi i32 [ %88, %87 ], [ %98, %97 ]
  br label %101

101:                                              ; preds = %99, %82
  %102 = phi i32 [ -3, %82 ], [ %100, %99 ]
  br label %103

103:                                              ; preds = %101, %77
  %104 = phi i32 [ 3, %77 ], [ %102, %101 ]
  store i32 %104, ptr %31, align 4
  %105 = load i32, ptr %30, align 4
  %106 = load i32, ptr %31, align 4
  %107 = add nsw i32 %106, %105
  store i32 %107, ptr %31, align 4
  br label %108

108:                                              ; preds = %103
  %109 = load i32, ptr %16, align 4
  %110 = trunc i32 %109 to i8
  store i8 %110, ptr %25, align 1
  %111 = load i32, ptr %16, align 4
  %112 = ashr i32 %111, 8
  %113 = trunc i32 %112 to i8
  store i8 %113, ptr %26, align 1
  %114 = load i32, ptr %16, align 4
  %115 = ashr i32 %114, 16
  %116 = trunc i32 %115 to i8
  store i8 %116, ptr %27, align 1
  br label %117

117:                                              ; preds = %108
  %118 = load i32, ptr %20, align 4
  %119 = icmp eq i32 %118, 0
  br i1 %119, label %120, label %144

120:                                              ; preds = %117
  br label %121

121:                                              ; preds = %139, %120
  br label %122

122:                                              ; preds = %121
  %123 = load i8, ptr %25, align 1
  %124 = load ptr, ptr %29, align 8
  %125 = getelementptr inbounds i8, ptr %124, i64 0
  store i8 %123, ptr %125, align 1
  %126 = load i8, ptr %26, align 1
  %127 = load ptr, ptr %29, align 8
  %128 = getelementptr inbounds i8, ptr %127, i64 1
  store i8 %126, ptr %128, align 1
  %129 = load i8, ptr %27, align 1
  %130 = load ptr, ptr %29, align 8
  %131 = getelementptr inbounds i8, ptr %130, i64 2
  store i8 %129, ptr %131, align 1
  br label %132

132:                                              ; preds = %122
  %133 = load ptr, ptr %29, align 8
  %134 = ptrtoint ptr %133 to i64
  %135 = load i32, ptr %30, align 4
  %136 = sext i32 %135 to i64
  %137 = add nsw i64 %134, %136
  %138 = inttoptr i64 %137 to ptr
  store ptr %138, ptr %29, align 8
  br label %139

139:                                              ; preds = %132
  %140 = load i32, ptr %17, align 4
  %141 = add nsw i32 %140, -1
  store i32 %141, ptr %17, align 4
  %142 = icmp sgt i32 %141, 0
  br i1 %142, label %121, label %143, !llvm.loop !14

143:                                              ; preds = %139
  br label %185

144:                                              ; preds = %117
  br label %145

145:                                              ; preds = %180, %144
  br label %146

146:                                              ; preds = %145
  %147 = load i8, ptr %25, align 1
  %148 = load ptr, ptr %29, align 8
  %149 = getelementptr inbounds i8, ptr %148, i64 0
  store i8 %147, ptr %149, align 1
  %150 = load i8, ptr %26, align 1
  %151 = load ptr, ptr %29, align 8
  %152 = getelementptr inbounds i8, ptr %151, i64 1
  store i8 %150, ptr %152, align 1
  %153 = load i8, ptr %27, align 1
  %154 = load ptr, ptr %29, align 8
  %155 = getelementptr inbounds i8, ptr %154, i64 2
  store i8 %153, ptr %155, align 1
  br label %156

156:                                              ; preds = %146
  %157 = load i32, ptr %18, align 4
  %158 = icmp slt i32 %157, 0
  br i1 %158, label %159, label %169

159:                                              ; preds = %156
  %160 = load ptr, ptr %29, align 8
  %161 = ptrtoint ptr %160 to i64
  %162 = load i32, ptr %30, align 4
  %163 = sext i32 %162 to i64
  %164 = add nsw i64 %161, %163
  %165 = inttoptr i64 %164 to ptr
  store ptr %165, ptr %29, align 8
  %166 = load i32, ptr %20, align 4
  %167 = load i32, ptr %18, align 4
  %168 = add nsw i32 %167, %166
  store i32 %168, ptr %18, align 4
  br label %179

169:                                              ; preds = %156
  %170 = load ptr, ptr %29, align 8
  %171 = ptrtoint ptr %170 to i64
  %172 = load i32, ptr %31, align 4
  %173 = sext i32 %172 to i64
  %174 = add nsw i64 %171, %173
  %175 = inttoptr i64 %174 to ptr
  store ptr %175, ptr %29, align 8
  %176 = load i32, ptr %22, align 4
  %177 = load i32, ptr %18, align 4
  %178 = sub nsw i32 %177, %176
  store i32 %178, ptr %18, align 4
  br label %179

179:                                              ; preds = %169, %159
  br label %180

180:                                              ; preds = %179
  %181 = load i32, ptr %17, align 4
  %182 = add nsw i32 %181, -1
  store i32 %182, ptr %17, align 4
  %183 = icmp sgt i32 %182, 0
  br i1 %183, label %145, label %184, !llvm.loop !15

184:                                              ; preds = %180
  br label %185

185:                                              ; preds = %184, %143
  ret void
}