; Function Attrs: nofree norecurse nosync nounwind memory(write, argmem: readwrite, inaccessiblemem: none) uwtable
define hidden void @Any3ByteSetLine(ptr nocapture noundef readonly %0, i32 noundef %1, i32 noundef %2, i32 noundef %3, i32 noundef %4, i32 noundef %5, i32 noundef %6, i32 noundef %7, i32 noundef %8, i32 noundef %9, ptr nocapture readnone %10, ptr nocapture readnone %11) #0 {
  %13 = getelementptr inbounds i8, ptr %0, i64 32
  %14 = load i32, ptr %13, align 8
  %15 = getelementptr inbounds i8, ptr %0, i64 16
  %16 = load ptr, ptr %15, align 8
  %17 = ptrtoint ptr %16 to i64
  %18 = sext i32 %2 to i64
  %19 = sext i32 %14 to i64
  %20 = mul nsw i64 %19, %18
  %21 = sext i32 %1 to i64
  %22 = mul nsw i64 %21, 3
  %23 = add nsw i64 %20, %22
  %24 = add nsw i64 %23, %17
  %25 = inttoptr i64 %24 to ptr
  %26 = and i32 %6, 1
  %.not = icmp eq i32 %26, 0
  br i1 %.not, label %27, label %33

27:                                               ; preds = %12
  %28 = and i32 %6, 2
  %.not51 = icmp eq i32 %28, 0
  br i1 %.not51, label %29, label %33

29:                                               ; preds = %27
  %30 = and i32 %6, 4
  %.not52 = icmp eq i32 %30, 0
  %31 = sub nsw i32 0, %14
  %32 = select i1 %.not52, i32 %31, i32 %14
  br label %33

33:                                               ; preds = %29, %27, %12
  %34 = phi i32 [ 3, %12 ], [ %32, %29 ], [ -3, %27 ]
  %35 = and i32 %8, 1
  %.not53 = icmp eq i32 %35, 0
  br i1 %.not53, label %36, label %44

36:                                               ; preds = %33
  %37 = and i32 %8, 2
  %.not54 = icmp eq i32 %37, 0
  br i1 %.not54, label %38, label %44

38:                                               ; preds = %36
  %39 = and i32 %8, 4
  %.not55 = icmp eq i32 %39, 0
  br i1 %.not55, label %40, label %44

40:                                               ; preds = %38
  %41 = and i32 %8, 8
  %.not56 = icmp eq i32 %41, 0
  %42 = sub nsw i32 0, %14
  %43 = select i1 %.not56, i32 0, i32 %42
  br label %44

44:                                               ; preds = %38, %36, %40, %33
  %45 = phi i32 [ 3, %33 ], [ -3, %36 ], [ %43, %40 ], [ %14, %38 ]
  %46 = trunc i32 %3 to i8
  %47 = lshr i32 %3, 8
  %48 = trunc i32 %47 to i8
  %49 = lshr i32 %3, 16
  %50 = trunc i32 %49 to i8
  %51 = icmp eq i32 %7, 0
  br i1 %51, label %.preheader, label %.preheader57

.preheader57:                                     ; preds = %44
  %52 = sub i32 0, %9
  br label %62

.preheader:                                       ; preds = %44
  %53 = sext i32 %34 to i64
  br label %54

54:                                               ; preds = %.preheader, %54
  %.046 = phi ptr [ %59, %54 ], [ %25, %.preheader ]
  %.0 = phi i32 [ %60, %54 ], [ %4, %.preheader ]
  store i8 %46, ptr %.046, align 1
  %55 = getelementptr inbounds i8, ptr %.046, i64 1
  store i8 %48, ptr %55, align 1
  %56 = getelementptr inbounds i8, ptr %.046, i64 2
  store i8 %50, ptr %56, align 1
  %57 = ptrtoint ptr %.046 to i64
  %58 = add nsw i64 %57, %53
  %59 = inttoptr i64 %58 to ptr
  %60 = add nsw i32 %.0, -1
  %61 = icmp sgt i32 %.0, 1
  br i1 %61, label %54, label %.loopexit, !llvm.loop !14

62:                                               ; preds = %.preheader57, %62
  %.048 = phi i32 [ %.149, %62 ], [ %5, %.preheader57 ]
  %.147 = phi ptr [ %.2, %62 ], [ %25, %.preheader57 ]
  %.1 = phi i32 [ %68, %62 ], [ %4, %.preheader57 ]
  store i8 %46, ptr %.147, align 1
  %63 = getelementptr inbounds i8, ptr %.147, i64 1
  store i8 %48, ptr %63, align 1
  %64 = getelementptr inbounds i8, ptr %.147, i64 2
  store i8 %50, ptr %64, align 1
  %65 = icmp slt i32 %.048, 0
  %66 = ptrtoint ptr %.147 to i64
  %.149.p = select i1 %65, i32 %7, i32 %52
  %.149 = add i32 %.048, %.149.p
  %67 = select i1 %65, i32 0, i32 %45
  %.2.in.v.v = add nsw i32 %34, %67
  %.2.in.v = sext i32 %.2.in.v.v to i64
  %.2.in = add nsw i64 %66, %.2.in.v
  %.2 = inttoptr i64 %.2.in to ptr
  %68 = add nsw i32 %.1, -1
  %69 = icmp sgt i32 %.1, 1
  br i1 %69, label %62, label %.loopexit, !llvm.loop !15

.loopexit:                                        ; preds = %62, %54
  ret void
}